target datalayout = "e-m:e-p270:32:32-p271:32:32-p272:64:64-i64:64-i128:128-f80:128-n8:16:32:64-S128"
target triple = "x86_64-pc-linux-gnu"

%struct.rb_shape_tree_t = type { ptr, ptr, i32, ptr, i32 }
%struct.rb_shape = type { ptr, i64, i32, i32, i8, i8, i32, ptr }

@rb_shape_tree_ptr = hidden global ptr null, align 8

; Function Attrs: nounwind sspstrong uwtable
define hidden ptr @rb_shape_get_shape_by_id(i32 noundef %0) #0 {
  %2 = alloca i32, align 4
  %3 = alloca ptr, align 8
  store i32 %0, ptr %2, align 4, !tbaa !21
  call void @llvm.lifetime.start.p0(i64 8, ptr %3) #14
  %4 = call ptr @rb_current_shape_tree()
  %5 = getelementptr inbounds nuw %struct.rb_shape_tree_t, ptr %4, i32 0, i32 0
  %6 = load ptr, ptr %5, align 8, !tbaa !17
  %7 = load i32, ptr %2, align 4, !tbaa !21
  %8 = zext i32 %7 to i64
  %9 = getelementptr %struct.rb_shape, ptr %6, i64 %8
  store ptr %9, ptr %3, align 8, !tbaa !16
  %10 = load ptr, ptr %3, align 8, !tbaa !16
  call void @llvm.lifetime.end.p0(i64 8, ptr %3) #14
  ret ptr %10
}

; Function Attrs: inlinehint nounwind sspstrong uwtable
define internal ptr @rb_current_shape_tree() #1 {
  %1 = load ptr, ptr @rb_shape_tree_ptr, align 8, !tbaa !15
  ret ptr %1
}

; Function Attrs: nounwind sspstrong uwtable
define hidden ptr @rb_shape_get_root_shape() #0 {
  %1 = call ptr @rb_current_shape_tree()
  %2 = getelementptr inbounds nuw %struct.rb_shape_tree_t, ptr %1, i32 0, i32 1
  %3 = load ptr, ptr %2, align 8, !tbaa !7
  ret ptr %3
}

; Function Attrs: nounwind sspstrong uwtable
define dso_local void @rb_shape_each_shape(ptr noundef %0, ptr noundef %1) #0 {
  %3 = alloca ptr, align 8
  %4 = alloca ptr, align 8
  %5 = alloca ptr, align 8
  %6 = alloca ptr, align 8
  store ptr %0, ptr %3, align 8, !tbaa !15
  store ptr %1, ptr %4, align 8, !tbaa !15
  call void @llvm.lifetime.start.p0(i64 8, ptr %5) #14
  %7 = call ptr @rb_shape_get_root_shape()
  store ptr %7, ptr %5, align 8, !tbaa !16
  call void @llvm.lifetime.start.p0(i64 8, ptr %6) #14
  %8 = call ptr @rb_current_shape_tree()
  %9 = getelementptr inbounds nuw %struct.rb_shape_tree_t, ptr %8, i32 0, i32 2
  %10 = load i32, ptr %9, align 8, !tbaa !18
  %11 = call ptr @rb_shape_get_shape_by_id(i32 noundef %10)
  store ptr %11, ptr %6, align 8, !tbaa !16
  br label %12

12:                                               ; preds = %16, %2
  %13 = load ptr, ptr %5, align 8, !tbaa !16
  %14 = load ptr, ptr %6, align 8, !tbaa !16
  %15 = icmp ult ptr %13, %14
  br i1 %15, label %16, label %22

16:                                               ; preds = %12
  %17 = load ptr, ptr %3, align 8, !tbaa !15
  %18 = load ptr, ptr %5, align 8, !tbaa !16
  %19 = load ptr, ptr %4, align 8, !tbaa !15
  call void %17(ptr noundef %18, ptr noundef %19)
  %20 = load ptr, ptr %5, align 8, !tbaa !16
  %21 = getelementptr %struct.rb_shape, ptr %20, i64 1
  store ptr %21, ptr %5, align 8, !tbaa !16
  br label %12, !llvm.loop !19

22:                                               ; preds = %12
  call void @llvm.lifetime.end.p0(i64 8, ptr %6) #14
  call void @llvm.lifetime.end.p0(i64 8, ptr %5) #14
  ret void
}