; Function Attrs: nounwind sspstrong uwtable
define dso_local void @rb_shape_each_shape(ptr noundef readonly captures(none) %0, ptr noundef %1) local_unnamed_addr #1 {
  %3 = load ptr, ptr @rb_shape_tree_ptr, align 8, !tbaa !7
  %4 = getelementptr inbounds nuw i8, ptr %3, i64 8
  %5 = load ptr, ptr %4, align 8, !tbaa !11
  %6 = getelementptr inbounds nuw i8, ptr %3, i64 16
  %7 = load i32, ptr %6, align 8, !tbaa !17
  %8 = load ptr, ptr %3, align 8, !tbaa !16
  %9 = zext i32 %7 to i64
  %10 = getelementptr %struct.rb_shape, ptr %8, i64 %9
  %11 = icmp ult ptr %5, %10
  br i1 %11, label %.lr.ph, label %._crit_edge

.lr.ph:                                           ; preds = %2, %.lr.ph
  %.06 = phi ptr [ %12, %.lr.ph ], [ %5, %2 ]
  tail call void %0(ptr noundef %.06, ptr noundef %1) #15
  %12 = getelementptr i8, ptr %.06, i64 40
  %13 = icmp ult ptr %12, %10
  br i1 %13, label %.lr.ph, label %._crit_edge, !llvm.loop !18

._crit_edge:                                      ; preds = %.lr.ph, %2
  ret void
}